; Function Attrs: mustprogress nofree norecurse nosync nounwind willreturn memory(argmem: readwrite) uwtable
define void @_ZN2cv5kinfu6Params20setInitialVolumePoseENS_4MatxIfLi3ELi3EEENS_3VecIfLi3EEE(ptr noundef nonnull writeonly align 8 captures(none) dereferenceable(252) initializes((124, 188)) %0, ptr noundef readonly byval(%"class.cv::Matx.0") align 8 captures(none) %1, ptr noundef readonly captures(none) %2) local_unnamed_addr #4 align 2 {
  %4 = load float, ptr %1, align 8, !tbaa !3
  %5 = getelementptr inbounds nuw i8, ptr %1, i64 4
  %6 = load float, ptr %5, align 4, !tbaa !3
  %7 = getelementptr inbounds nuw i8, ptr %1, i64 8
  %8 = load float, ptr %7, align 8, !tbaa !3
  %9 = getelementptr inbounds nuw i8, ptr %1, i64 12
  %10 = load float, ptr %9, align 4, !tbaa !3
  %11 = getelementptr inbounds nuw i8, ptr %1, i64 16
  %12 = load float, ptr %11, align 8, !tbaa !3
  %13 = getelementptr inbounds nuw i8, ptr %1, i64 20
  %14 = load float, ptr %13, align 4, !tbaa !3
  %15 = getelementptr inbounds nuw i8, ptr %1, i64 24
  %16 = load float, ptr %15, align 8, !tbaa !3
  %17 = getelementptr inbounds nuw i8, ptr %1, i64 28
  %18 = load float, ptr %17, align 4, !tbaa !3
  %19 = getelementptr inbounds nuw i8, ptr %1, i64 32
  %20 = load float, ptr %19, align 8, !tbaa !3
  %21 = load float, ptr %2, align 4, !tbaa !3
  %22 = getelementptr inbounds nuw i8, ptr %2, i64 4
  %23 = load float, ptr %22, align 4, !tbaa !3
  %24 = getelementptr inbounds nuw i8, ptr %2, i64 8
  %25 = load float, ptr %24, align 4, !tbaa !3
  %26 = getelementptr inbounds nuw i8, ptr %0, i64 124
  store float %4, ptr %26, align 4
  %.sroa.415.0..sroa_idx = getelementptr inbounds nuw i8, ptr %0, i64 128
  store float %6, ptr %.sroa.415.0..sroa_idx, align 8
  %.sroa.516.0..sroa_idx = getelementptr inbounds nuw i8, ptr %0, i64 132
  store float %8, ptr %.sroa.516.0..sroa_idx, align 4
  %.sroa.617.0..sroa_idx = getelementptr inbounds nuw i8, ptr %0, i64 136
  store float %21, ptr %.sroa.617.0..sroa_idx, align 8
  %.sroa.718.0..sroa_idx = getelementptr inbounds nuw i8, ptr %0, i64 140
  store float %10, ptr %.sroa.718.0..sroa_idx, align 4
  %.sroa.819.0..sroa_idx = getelementptr inbounds nuw i8, ptr %0, i64 144
  store float %12, ptr %.sroa.819.0..sroa_idx, align 8
  %.sroa.920.0..sroa_idx = getelementptr inbounds nuw i8, ptr %0, i64 148
  store float %14, ptr %.sroa.920.0..sroa_idx, align 4
  %.sroa.1021.0..sroa_idx = getelementptr inbounds nuw i8, ptr %0, i64 152
  store float %23, ptr %.sroa.1021.0..sroa_idx, align 8
  %.sroa.1122.0..sroa_idx = getelementptr inbounds nuw i8, ptr %0, i64 156
  store float %16, ptr %.sroa.1122.0..sroa_idx, align 4
  %.sroa.1223.0..sroa_idx = getelementptr inbounds nuw i8, ptr %0, i64 160
  store float %18, ptr %.sroa.1223.0..sroa_idx, align 8
  %.sroa.1324.0..sroa_idx = getelementptr inbounds nuw i8, ptr %0, i64 164
  store float %20, ptr %.sroa.1324.0..sroa_idx, align 4
  %.sroa.1425.0..sroa_idx = getelementptr inbounds nuw i8, ptr %0, i64 168
  store float %25, ptr %.sroa.1425.0..sroa_idx, align 8
  %.sroa.1526.0..sroa_idx = getelementptr inbounds nuw i8, ptr %0, i64 172
  store float 0.000000e+00, ptr %.sroa.1526.0..sroa_idx, align 4
  %.sroa.1627.0..sroa_idx = getelementptr inbounds nuw i8, ptr %0, i64 176
  store float 0.000000e+00, ptr %.sroa.1627.0..sroa_idx, align 8
  %.sroa.1728.0..sroa_idx = getelementptr inbounds nuw i8, ptr %0, i64 180
  store float 0.000000e+00, ptr %.sroa.1728.0..sroa_idx, align 4
  %.sroa.1829.0..sroa_idx = getelementptr inbounds nuw i8, ptr %0, i64 184
  store float 1.000000e+00, ptr %.sroa.1829.0..sroa_idx, align 8, !tbaa !7
  ret void
}